; Function Attrs: null_pointer_is_valid sspstrong uwtable
define internal void @sccp_prompt(ptr noundef %0, ptr noundef %1) #0 {
  %3 = getelementptr inbounds nuw i8, ptr %0, i64 408
  %4 = load ptr, ptr %3, align 8
  %5 = load i32, ptr @proto_sccp, align 4
  %6 = tail call ptr @p_get_proto_data(ptr noundef %4, ptr noundef %0, i32 noundef %5, i32 noundef 0)
  %7 = ptrtoint ptr %6 to i64
  %8 = trunc i64 %7 to i32
  %9 = tail call i32 (ptr, i64, i32, i64, ptr, ...) @__snprintf_chk(ptr noundef %1, i64 noundef 200, i32 noundef 2, i64 noundef -1, ptr noundef nonnull @.str.464, i32 noundef %8)
  ret void
}